target datalayout = "e-m:e-p270:32:32-p271:32:32-p272:64:64-i64:64-i128:128-f80:128-n8:16:32:64-S128"
target triple = "x86_64-pc-linux-gnu"

%class.GrowableArrayBase = type { i32, i32 }
%class.GrowableArrayMetadata = type { i64 }
%class.Compile = type <{ %class.Phase, i32, %class.Options, [4 x i8], ptr, i32, [4 x i8], ptr, ptr, ptr, ptr, ptr, i32, i32, i32, [4 x i8], i64, i8, i8, [2 x i8], i32, i8, i8, i8, i8, i8, i8, i8, i8, i8, [3 x i8], i32, i8, [3 x i8], [30 x i32], i8, [3 x i8], i32, i8, i8, i8, i8, i8, i8, i8, i8, i8, i8, i8, i8, i8, [3 x i8], i32, i32, [4 x i8], %class.Arena, ptr, ptr, ptr, ptr, %class.CHeapStringHolder, ptr, %class.GrowableArray.0, %class.GrowableArray.3, %class.GrowableArray.6, %class.GrowableArray.3, %class.GrowableArray.3, %class.GrowableArray.3, %class.GrowableArray.9, %class.GrowableArray.12, ptr, i32, i32, %class.VectorSet, %class.Arena, %class.Arena, ptr, ptr, ptr, ptr, ptr, ptr, ptr, ptr, ptr, %class.Arena, ptr, ptr, %class.CloneMap, i64, ptr, ptr, ptr, i32, i32, [64 x %"struct.Compile::AliasCacheEntry"], ptr, ptr, ptr, ptr, %class.GrowableArray.0, %class.GrowableArray.0, %class.GrowableArray.0, %class.GrowableArray.0, i32, i32, i8, [7 x i8], ptr, ptr, i32, [4 x i8], ptr, ptr, ptr, i32, i32, ptr, ptr, %class.RegMask, ptr, ptr, i32, [4 x i8], ptr, %class.TimeInstant, i32, [4 x i8] }>
%class.Phase = type { i32, ptr }
%class.Options = type { i8, i8, i8, i8, i8, i8, i8, i8 }
%class.CHeapStringHolder = type { ptr }
%class.GrowableArray.6 = type { %class.GrowableArrayWithAllocator.7, %class.GrowableArrayMetadata }
%class.GrowableArrayWithAllocator.7 = type { %class.GrowableArrayView.8 }
%class.GrowableArrayView.8 = type { %class.GrowableArrayBase, ptr }
%class.GrowableArray.3 = type { %class.GrowableArrayWithAllocator.4, %class.GrowableArrayMetadata }
%class.GrowableArrayWithAllocator.4 = type { %class.GrowableArrayView.5 }
%class.GrowableArrayView.5 = type { %class.GrowableArrayBase, ptr }
%class.GrowableArray.9 = type { %class.GrowableArrayWithAllocator.10, %class.GrowableArrayMetadata }
%class.GrowableArrayWithAllocator.10 = type { %class.GrowableArrayView.11 }
%class.GrowableArrayView.11 = type { %class.GrowableArrayBase, ptr }
%class.GrowableArray.12 = type { %class.GrowableArrayWithAllocator.13, %class.GrowableArrayMetadata }
%class.GrowableArrayWithAllocator.13 = type { %class.GrowableArrayView.14 }
%class.GrowableArrayView.14 = type { %class.GrowableArrayBase, ptr }
%class.VectorSet = type { i32, ptr, i32, ptr }
%class.Arena = type { i8, i8, i64, ptr, ptr, ptr, ptr }
%class.CloneMap = type <{ i8, [7 x i8], ptr, i32, [4 x i8] }>
%"struct.Compile::AliasCacheEntry" = type { ptr, i32 }
%class.GrowableArray.0 = type { %class.GrowableArrayWithAllocator.1, %class.GrowableArrayMetadata }
%class.GrowableArrayWithAllocator.1 = type { %class.GrowableArrayView.2 }
%class.GrowableArrayView.2 = type { %class.GrowableArrayBase, ptr }
%class.RegMask = type { %union.anon, i32, i32 }
%union.anon = type { [11 x i64] }
%class.TimeInstant = type { %class.CompositeCounterRepresentation }
%class.CompositeCounterRepresentation = type { %class.Representation }
%class.Representation = type { %class.PairRep }
%class.PairRep = type { i64, i64 }
%class.ciMethod = type { %class.ciMetadata, %class.ciFlags, ptr, ptr, ptr, ptr, ptr, i32, i32, i32, i32, i32, i32, i32, i32, i32, i8, i8, i8, i8, i8, i8, i8, i8, i8, ptr, ptr, ptr, ptr, ptr }
%class.ciMetadata = type { %class.ciBaseObject.base, ptr }
%class.ciBaseObject.base = type <{ ptr, i32 }>
%class.ciFlags = type <{ i32, i8, i8, [2 x i8] }>
%class.ciSignature = type <{ ptr, ptr, %class.GrowableArray.16, ptr, i32, [4 x i8] }>
%class.GrowableArray.16 = type { %class.GrowableArrayWithAllocator.17, %class.GrowableArrayMetadata }
%class.GrowableArrayWithAllocator.17 = type { %class.GrowableArrayView.18 }
%class.GrowableArrayView.18 = type { %class.GrowableArrayBase, ptr }

@EliminateAllocations = external global i8, align 1
@_ZN5ciEnv15_Iterator_klassE = external global ptr, align 8

; Function Attrs: mustprogress nounwind uwtable
define linkonce_odr hidden noundef zeroext i1 @_ZNK10ciMetadata9is_loadedEv(ptr noundef nonnull align 8 dereferenceable(24) %0) #1 comdat align 2 {
  %2 = alloca ptr, align 8
  store ptr %0, ptr %2, align 8
  %3 = load ptr, ptr %2, align 8
  %4 = getelementptr inbounds %class.ciMetadata, ptr %3, i32 0, i32 1
  %5 = load ptr, ptr %4, align 8
  %6 = icmp ne ptr %5, null
  br i1 %6, label %12, label %7

7:                                                ; preds = %1
  %8 = load ptr, ptr %3, align 8
  %9 = getelementptr inbounds ptr, ptr %8, i64 4
  %10 = load ptr, ptr %9, align 8
  %11 = call noundef zeroext i1 %10(ptr noundef nonnull align 8 dereferenceable(24) %3)
  br label %12

12:                                               ; preds = %7, %1
  %13 = phi i1 [ true, %1 ], [ %11, %7 ]
  ret i1 %13
}

; Function Attrs: mustprogress nounwind uwtable
define linkonce_odr hidden noundef ptr @_ZN5ciEnv14Iterator_klassEv(ptr noundef nonnull align 8 dereferenceable(1265) %0) #1 comdat align 2 {
  %2 = alloca ptr, align 8
  store ptr %0, ptr %2, align 8
  %3 = load ptr, ptr @_ZN5ciEnv15_Iterator_klassE, align 8
  ret ptr %3
}

; Function Attrs: mustprogress nounwind uwtable
define linkonce_odr hidden noundef ptr @_ZNK7Compile3envEv(ptr noundef nonnull align 8 dereferenceable(2316) %0) #1 comdat align 2 {
  %2 = alloca ptr, align 8
  store ptr %0, ptr %2, align 8
  %3 = load ptr, ptr %2, align 8
  %4 = getelementptr inbounds %class.Compile, ptr %3, i32 0, i32 57
  %5 = load ptr, ptr %4, align 8
  ret ptr %5
}

; Function Attrs: mustprogress nounwind uwtable
define linkonce_odr hidden noundef ptr @_ZNK11ciSignature11return_typeEv(ptr noundef nonnull align 8 dereferenceable(52) %0) #1 comdat align 2 {
  %2 = alloca ptr, align 8
  store ptr %0, ptr %2, align 8
  %3 = load ptr, ptr %2, align 8
  %4 = getelementptr inbounds %class.ciSignature, ptr %3, i32 0, i32 3
  %5 = load ptr, ptr %4, align 8
  ret ptr %5
}

; Function Attrs: mustprogress nounwind uwtable
define linkonce_odr hidden noundef ptr @_ZNK8ciMethod9signatureEv(ptr noundef nonnull align 8 dereferenceable(160) %0) #1 comdat align 2 {
  %2 = alloca ptr, align 8
  store ptr %0, ptr %2, align 8
  %3 = load ptr, ptr %2, align 8
  %4 = getelementptr inbounds %class.ciMethod, ptr %3, i32 0, i32 4
  %5 = load ptr, ptr %4, align 8
  ret ptr %5
}

; Function Attrs: mustprogress nounwind uwtable
define linkonce_odr hidden noundef zeroext i1 @_ZNK7Compile16eliminate_boxingEv(ptr noundef nonnull align 8 dereferenceable(2316) %0) #1 comdat align 2 {
  %2 = alloca ptr, align 8
  store ptr %0, ptr %2, align 8
  %3 = load ptr, ptr %2, align 8
  %4 = getelementptr inbounds %class.Compile, ptr %3, i32 0, i32 2
  %5 = getelementptr inbounds %class.Options, ptr %4, i32 0, i32 4
  %6 = load i8, ptr %5, align 4
  %7 = trunc i8 %6 to i1
  ret i1 %7
}

; Function Attrs: mustprogress nounwind uwtable
define linkonce_odr hidden noundef ptr @_ZNK8ciMethod6holderEv(ptr noundef nonnull align 8 dereferenceable(160) %0) #1 comdat align 2 {
  %2 = alloca ptr, align 8
  store ptr %0, ptr %2, align 8
  %3 = load ptr, ptr %2, align 8
  %4 = getelementptr inbounds %class.ciMethod, ptr %3, i32 0, i32 3
  %5 = load ptr, ptr %4, align 8
  ret ptr %5
}

; Function Attrs: mustprogress nounwind uwtable
define linkonce_odr hidden noundef ptr @_ZNK7Compile6methodEv(ptr noundef nonnull align 8 dereferenceable(2316) %0) #1 comdat align 2 {
  %2 = alloca ptr, align 8
  store ptr %0, ptr %2, align 8
  %3 = load ptr, ptr %2, align 8
  %4 = getelementptr inbounds %class.Compile, ptr %3, i32 0, i32 4
  %5 = load ptr, ptr %4, align 8
  ret ptr %5
}

; Function Attrs: mustprogress nounwind uwtable
define linkonce_odr hidden noundef zeroext i1 @_ZNK7Compile18do_escape_analysisEv(ptr noundef nonnull align 8 dereferenceable(2316) %0) #1 comdat align 2 {
  %2 = alloca ptr, align 8
  store ptr %0, ptr %2, align 8
  %3 = load ptr, ptr %2, align 8
  %4 = getelementptr inbounds %class.Compile, ptr %3, i32 0, i32 2
  %5 = getelementptr inbounds %class.Options, ptr %4, i32 0, i32 1
  %6 = load i8, ptr %5, align 1
  %7 = trunc i8 %6 to i1
  ret i1 %7
}

; Function Attrs: mustprogress nounwind uwtable
define internal noundef zeroext i1 @_ZL15is_init_with_eaP8ciMethodS0_P7Compile(ptr noundef %0, ptr noundef %1, ptr noundef %2) #1 {
  %4 = alloca i1, align 1
  %5 = alloca ptr, align 8
  %6 = alloca ptr, align 8
  %7 = alloca ptr, align 8
  %8 = alloca ptr, align 8
  %9 = alloca ptr, align 8
  store ptr %0, ptr %5, align 8
  store ptr %1, ptr %6, align 8
  store ptr %2, ptr %7, align 8
  %10 = load ptr, ptr %7, align 8
  %11 = call noundef zeroext i1 @_ZNK7Compile18do_escape_analysisEv(ptr noundef nonnull align 8 dereferenceable(2316) %10)
  br i1 %11, label %12, label %15

12:                                               ; preds = %3
  %13 = load i8, ptr @EliminateAllocations, align 1
  %14 = trunc i8 %13 to i1
  br i1 %14, label %16, label %15

15:                                               ; preds = %12, %3
  store i1 false, ptr %4, align 1
  br label %60

16:                                               ; preds = %12
  %17 = load ptr, ptr %5, align 8
  %18 = call noundef zeroext i1 @_ZNK8ciMethod14is_initializerEv(ptr noundef nonnull align 8 dereferenceable(160) %17)
  br i1 %18, label %19, label %20

19:                                               ; preds = %16
  store i1 true, ptr %4, align 1
  br label %60

20:                                               ; preds = %16
  %21 = load ptr, ptr %6, align 8
  %22 = call noundef zeroext i1 @_ZNK8ciMethod14is_initializerEv(ptr noundef nonnull align 8 dereferenceable(160) %21)
  br i1 %22, label %23, label %35

23:                                               ; preds = %20
  %24 = load ptr, ptr %6, align 8
  %25 = load ptr, ptr %7, align 8
  %26 = call noundef ptr @_ZNK7Compile6methodEv(ptr noundef nonnull align 8 dereferenceable(2316) %25)
  %27 = icmp ne ptr %24, %26
  br i1 %27, label %28, label %35

28:                                               ; preds = %23
  %29 = load ptr, ptr %6, align 8
  %30 = call noundef ptr @_ZNK8ciMethod6holderEv(ptr noundef nonnull align 8 dereferenceable(160) %29)
  %31 = load ptr, ptr %5, align 8
  %32 = call noundef ptr @_ZNK8ciMethod6holderEv(ptr noundef nonnull align 8 dereferenceable(160) %31)
  %33 = call noundef zeroext i1 @_ZN7ciKlass14is_subclass_ofEPS_(ptr noundef nonnull align 8 dereferenceable(44) %30, ptr noundef %32)
  br i1 %33, label %34, label %35

34:                                               ; preds = %28
  store i1 true, ptr %4, align 1
  br label %60

35:                                               ; preds = %28, %23, %20
  %36 = load ptr, ptr %7, align 8
  %37 = call noundef zeroext i1 @_ZNK7Compile16eliminate_boxingEv(ptr noundef nonnull align 8 dereferenceable(2316) %36)
  br i1 %37, label %38, label %42

38:                                               ; preds = %35
  %39 = load ptr, ptr %5, align 8
  %40 = call noundef zeroext i1 @_ZNK8ciMethod16is_boxing_methodEv(ptr noundef nonnull align 8 dereferenceable(160) %39)
  br i1 %40, label %41, label %42

41:                                               ; preds = %38
  store i1 true, ptr %4, align 1
  br label %60

42:                                               ; preds = %38, %35
  %43 = load ptr, ptr %5, align 8
  %44 = call noundef ptr @_ZNK8ciMethod9signatureEv(ptr noundef nonnull align 8 dereferenceable(160) %43)
  %45 = call noundef ptr @_ZNK11ciSignature11return_typeEv(ptr noundef nonnull align 8 dereferenceable(52) %44)
  store ptr %45, ptr %8, align 8
  %46 = load ptr, ptr %7, align 8
  %47 = call noundef ptr @_ZNK7Compile3envEv(ptr noundef nonnull align 8 dereferenceable(2316) %46)
  %48 = call noundef ptr @_ZN5ciEnv14Iterator_klassEv(ptr noundef nonnull align 8 dereferenceable(1265) %47)
  store ptr %48, ptr %9, align 8
  %49 = load ptr, ptr %8, align 8
  %50 = call noundef zeroext i1 @_ZNK10ciMetadata9is_loadedEv(ptr noundef nonnull align 8 dereferenceable(24) %49)
  br i1 %50, label %51, label %59

51:                                               ; preds = %42
  %52 = load ptr, ptr %9, align 8
  %53 = call noundef zeroext i1 @_ZNK10ciMetadata9is_loadedEv(ptr noundef nonnull align 8 dereferenceable(24) %52)
  br i1 %53, label %54, label %59

54:                                               ; preds = %51
  %55 = load ptr, ptr %8, align 8
  %56 = load ptr, ptr %9, align 8
  %57 = call noundef zeroext i1 @_ZN6ciType13is_subtype_ofEPS_(ptr noundef nonnull align 8 dereferenceable(25) %55, ptr noundef %56)
  br i1 %57, label %58, label %59

58:                                               ; preds = %54
  store i1 true, ptr %4, align 1
  br label %60

59:                                               ; preds = %54, %51, %42
  store i1 false, ptr %4, align 1
  br label %60

60:                                               ; preds = %59, %58, %41, %34, %19, %15
  %61 = load i1, ptr %4, align 1
  ret i1 %61
}