; Function Attrs: mustprogress nounwind uwtable
define internal fastcc noundef zeroext i1 @_ZL15is_init_with_eaP8ciMethodS0_P7Compile(ptr noundef %0, ptr noundef %1, ptr nocapture noundef readonly %2) unnamed_addr #0 {
  %4 = getelementptr inbounds i8, ptr %2, i64 21
  %5 = load i8, ptr %4, align 1
  %6 = trunc i8 %5 to i1
  br i1 %6, label %7, label %49

7:                                                ; preds = %3
  %8 = load i8, ptr @EliminateAllocations, align 1
  %9 = trunc i8 %8 to i1
  br i1 %9, label %10, label %49

10:                                               ; preds = %7
  %11 = tail call noundef zeroext i1 @_ZNK8ciMethod14is_initializerEv(ptr noundef nonnull align 8 dereferenceable(160) %0) #10
  br i1 %11, label %49, label %12

12:                                               ; preds = %10
  %13 = tail call noundef zeroext i1 @_ZNK8ciMethod14is_initializerEv(ptr noundef nonnull align 8 dereferenceable(160) %1) #10
  br i1 %13, label %14, label %23

14:                                               ; preds = %12
  %15 = getelementptr inbounds i8, ptr %2, i64 32
  %16 = load ptr, ptr %15, align 8
  %.not = icmp eq ptr %16, %1
  br i1 %.not, label %23, label %17

17:                                               ; preds = %14
  %18 = getelementptr inbounds i8, ptr %1, i64 40
  %19 = load ptr, ptr %18, align 8
  %20 = getelementptr inbounds i8, ptr %0, i64 40
  %21 = load ptr, ptr %20, align 8
  %22 = tail call noundef zeroext i1 @_ZN7ciKlass14is_subclass_ofEPS_(ptr noundef nonnull align 8 dereferenceable(44) %19, ptr noundef %21) #10
  br i1 %22, label %49, label %23

23:                                               ; preds = %17, %14, %12
  %24 = getelementptr inbounds i8, ptr %2, i64 24
  %25 = load i8, ptr %24, align 4
  %26 = trunc i8 %25 to i1
  br i1 %26, label %27, label %29

27:                                               ; preds = %23
  %28 = tail call noundef zeroext i1 @_ZNK8ciMethod16is_boxing_methodEv(ptr noundef nonnull align 8 dereferenceable(160) %0) #10
  br i1 %28, label %49, label %29

29:                                               ; preds = %27, %23
  %30 = getelementptr inbounds i8, ptr %0, i64 48
  %31 = load ptr, ptr %30, align 8
  %32 = getelementptr inbounds i8, ptr %31, i64 40
  %33 = load ptr, ptr %32, align 8
  %34 = load ptr, ptr @_ZN5ciEnv15_Iterator_klassE, align 8
  %35 = getelementptr inbounds i8, ptr %33, i64 16
  %36 = load ptr, ptr %35, align 8
  %.not.i = icmp eq ptr %36, null
  br i1 %.not.i, label %_ZNK10ciMetadata9is_loadedEv.exit, label %_ZNK10ciMetadata9is_loadedEv.exit.thread

_ZNK10ciMetadata9is_loadedEv.exit:                ; preds = %29
  %37 = load ptr, ptr %33, align 8
  %38 = getelementptr inbounds i8, ptr %37, i64 32
  %39 = load ptr, ptr %38, align 8
  %40 = tail call noundef zeroext i1 %39(ptr noundef nonnull align 8 dereferenceable(24) %33) #10
  br i1 %40, label %_ZNK10ciMetadata9is_loadedEv.exit.thread, label %48

_ZNK10ciMetadata9is_loadedEv.exit.thread:         ; preds = %29, %_ZNK10ciMetadata9is_loadedEv.exit
  %41 = getelementptr inbounds i8, ptr %34, i64 16
  %42 = load ptr, ptr %41, align 8
  %.not.i17 = icmp eq ptr %42, null
  br i1 %.not.i17, label %_ZNK10ciMetadata9is_loadedEv.exit18, label %_ZNK10ciMetadata9is_loadedEv.exit18.thread

_ZNK10ciMetadata9is_loadedEv.exit18:              ; preds = %_ZNK10ciMetadata9is_loadedEv.exit.thread
  %43 = load ptr, ptr %34, align 8
  %44 = getelementptr inbounds i8, ptr %43, i64 32
  %45 = load ptr, ptr %44, align 8
  %46 = tail call noundef zeroext i1 %45(ptr noundef nonnull align 8 dereferenceable(24) %34) #10
  br i1 %46, label %_ZNK10ciMetadata9is_loadedEv.exit18.thread, label %48

_ZNK10ciMetadata9is_loadedEv.exit18.thread:       ; preds = %_ZNK10ciMetadata9is_loadedEv.exit.thread, %_ZNK10ciMetadata9is_loadedEv.exit18
  %47 = tail call noundef zeroext i1 @_ZN6ciType13is_subtype_ofEPS_(ptr noundef nonnull align 8 dereferenceable(25) %33, ptr noundef nonnull %34) #10
  br i1 %47, label %49, label %48

48:                                               ; preds = %_ZNK10ciMetadata9is_loadedEv.exit18.thread, %_ZNK10ciMetadata9is_loadedEv.exit18, %_ZNK10ciMetadata9is_loadedEv.exit
  br label %49

49:                                               ; preds = %_ZNK10ciMetadata9is_loadedEv.exit18.thread, %27, %17, %10, %3, %7, %48
  %.0 = phi i1 [ false, %48 ], [ false, %7 ], [ false, %3 ], [ true, %10 ], [ true, %17 ], [ true, %27 ], [ true, %_ZNK10ciMetadata9is_loadedEv.exit18.thread ]
  ret i1 %.0
}